target datalayout = "e-m:e-p270:32:32-p271:32:32-p272:64:64-i64:64-i128:128-f80:128-n8:16:32:64-S128"
target triple = "x86_64-pc-linux-gnu"

@sec_malloc_lock = internal global ptr null, align 8

; Function Attrs: nounwind uwtable
define i64 @CRYPTO_secure_actual_size(ptr noundef %0) #0 {
  %2 = alloca i64, align 8
  %3 = alloca ptr, align 8
  %4 = alloca i64, align 8
  %5 = alloca i32, align 4
  store ptr %0, ptr %3, align 8, !tbaa !9
  call void @llvm.lifetime.start.p0(i64 8, ptr %4) #7
  %6 = load ptr, ptr @sec_malloc_lock, align 8, !tbaa !9
  %7 = call i32 @CRYPTO_THREAD_write_lock(ptr noundef %6)
  %8 = icmp ne i32 %7, 0
  br i1 %8, label %10, label %9

9:                                                ; preds = %1
  store i64 0, ptr %2, align 8
  store i32 1, ptr %5, align 4
  br label %16

10:                                               ; preds = %1
  %11 = load ptr, ptr %3, align 8, !tbaa !9
  %12 = call i64 @sh_actual_size(ptr noundef %11)
  store i64 %12, ptr %4, align 8, !tbaa !3
  %13 = load ptr, ptr @sec_malloc_lock, align 8, !tbaa !9
  %14 = call i32 @CRYPTO_THREAD_unlock(ptr noundef %13)
  %15 = load i64, ptr %4, align 8, !tbaa !3
  store i64 %15, ptr %2, align 8
  store i32 1, ptr %5, align 4
  br label %16

16:                                               ; preds = %10, %9
  call void @llvm.lifetime.end.p0(i64 8, ptr %4) #7
  %17 = load i64, ptr %2, align 8
  ret i64 %17
}