; Function Attrs: nounwind uwtable
define i64 @CRYPTO_secure_actual_size(ptr noundef %0) local_unnamed_addr #0 {
  %2 = load ptr, ptr @sec_malloc_lock, align 8, !tbaa !3
  %3 = tail call i32 @CRYPTO_THREAD_write_lock(ptr noundef %2) #8
  %.not = icmp eq i32 %3, 0
  br i1 %.not, label %8, label %4

4:                                                ; preds = %1
  %5 = tail call fastcc i64 @sh_actual_size(ptr noundef %0)
  %6 = load ptr, ptr @sec_malloc_lock, align 8, !tbaa !3
  %7 = tail call i32 @CRYPTO_THREAD_unlock(ptr noundef %6) #8
  br label %8

8:                                                ; preds = %1, %4
  %.0 = phi i64 [ %5, %4 ], [ 0, %1 ]
  ret i64 %.0
}